(dp0
S'Loose_PtEtaBins'
p1
(dp2
S'Pt_Eta'
p3
(dp4
S'0.9,1.2'
p5
(dp6
S'3.0,3.25'
p7
(dp8
S'value'
p9
F0.6861506700515747
sS'error'
p10
F0.2899387762549503
ssS'3.75,4.0'
p11
(dp12
g9
F0.9216063022613525
sg10
F0.031884400130069906
ssS'20.0,30.0'
p13
(dp14
g9
F0.9999977946281433
sg10
F0.048074397253617396
ssS'500,700'
p15
(dp16
g9
Nsg10
NssS'700,1200'
p17
(dp18
g9
Nsg10
NssS'30.0,40.0'
p19
(dp20
g9
F0.9161185026168823
sg10
F0.08388147743650465
ssS'3.25,3.5'
p21
(dp22
g9
F0.7048559784889221
sg10
F0.09055891881945986
ssS'15.0,20.0'
p23
(dp24
g9
F1.0
sg10
F0.0353408145786534
ssS'2.0,2.5'
p25
(dp26
g9
F0.041268136352300644
sg10
F0.1167453886166982
ssS'3.5,3.75'
p27
(dp28
g9
F0.8167088031768799
sg10
F0.04505795717477239
ssS'2.75,3.0'
p29
(dp30
g9
F0.054616380482912064
sg10
F0.04354672585017753
ssS'10.0,15.0'
p31
(dp32
g9
F0.9842163920402527
sg10
F0.02127228339991737
ssS'8.0,10.0'
p33
(dp34
g9
F0.9792874455451965
sg10
F0.01930065694270399
ssS'6.0,8.0'
p35
(dp36
g9
F0.9564264416694641
sg10
F0.012974758681089245
ssS'4.5,5.0'
p37
(dp38
g9
F0.9346148371696472
sg10
F0.016999557064459093
ssS'5.0,6.0'
p39
(dp40
g9
F0.973938524723053
sg10
F0.013542914846178337
ssS'2.5,2.75'
p41
(dp42
g9
F0.0047858767211437225
sg10
F0.03283444974154887
ssS'4.0,4.5'
p43
(dp44
g9
F0.9380711317062378
sg10
F0.01754290512578401
sssS'0.0,0.9'
p45
(dp46
S'3.0,3.25'
p47
(dp48
g9
F0.05813245102763176
sg10
F0.03603425818691933
ssS'3.75,4.0'
p49
(dp50
g9
F0.9039062857627869
sg10
F0.02565796734486684
ssS'20.0,30.0'
p51
(dp52
g9
F0.9999985098838806
sg10
F0.01676256177331853
ssS'500,700'
p53
(dp54
g9
Nsg10
NssS'700,1200'
p55
(dp56
g9
Nsg10
NssS'30.0,40.0'
p57
(dp58
g9
F0.974923312664032
sg10
F0.042825413260768934
ssS'3.25,3.5'
p59
(dp60
g9
F0.63485187292099
sg10
F0.08094720577616651
ssS'15.0,20.0'
p61
(dp62
g9
F0.9739958047866821
sg10
F0.015267610700012927
ssS'2.0,2.5'
p63
(dp64
g9
F0.0
sg10
F0.3655918899495212
ssS'3.5,3.75'
p65
(dp66
g9
F0.8866854906082153
sg10
F0.04514837698786136
ssS'2.75,3.0'
p67
(dp68
g9
F0.0
sg10
F0.9999999999999999
ssS'10.0,15.0'
p69
(dp70
g9
F0.9789754748344421
sg10
F0.008494722539408738
ssS'8.0,10.0'
p71
(dp72
g9
F0.9899678230285645
sg10
F0.008441942591748798
ssS'6.0,8.0'
p73
(dp74
g9
F0.980646550655365
sg10
F0.005961950983217871
ssS'4.5,5.0'
p75
(dp76
g9
F0.9546797871589661
sg10
F0.009255660202502045
ssS'5.0,6.0'
p77
(dp78
g9
F0.976317286491394
sg10
F0.006353570310776779
ssS'2.5,2.75'
p79
(dp80
g9
F0.0
sg10
F0.1184373370530788
ssS'4.0,4.5'
p81
(dp82
g9
F0.9344930648803711
sg10
F0.011282771359824391
sssS'1.2,2.1'
p83
(dp84
S'3.0,3.25'
p85
(dp86
g9
F0.940269947052002
sg10
F0.012153898675637471
ssS'3.75,4.0'
p87
(dp88
g9
F0.9627734422683716
sg10
F0.013247501403287391
ssS'20.0,30.0'
p89
(dp90
g9
F0.9098566174507141
sg10
F0.03640986709332032
ssS'500,700'
p91
(dp92
g9
Nsg10
NssS'700,1200'
p93
(dp94
g9
Nsg10
NssS'30.0,40.0'
p95
(dp96
g9
F0.958708643913269
sg10
F0.08988670890572958
ssS'3.25,3.5'
p97
(dp98
g9
F0.9730560779571533
sg10
F0.012504859966048608
ssS'15.0,20.0'
p99
(dp100
g9
F0.999999463558197
sg10
F0.022854951664804037
ssS'2.0,2.5'
p101
(dp102
g9
F0.9805041551589966
sg10
F0.025034869895356193
ssS'3.5,3.75'
p103
(dp104
g9
F0.9893292188644409
sg10
F0.013803473470373607
ssS'2.75,3.0'
p105
(dp106
g9
F0.9477031230926514
sg10
F0.014190918626060284
ssS'10.0,15.0'
p107
(dp108
g9
F0.9904909729957581
sg10
F0.015120287735164214
ssS'8.0,10.0'
p109
(dp110
g9
F0.9776320457458496
sg10
F0.014354043744591361
ssS'6.0,8.0'
p111
(dp112
g9
F0.9780246615409851
sg10
F0.010753132314181874
ssS'4.5,5.0'
p113
(dp114
g9
F0.9870074987411499
sg10
F0.013100349866726186
ssS'5.0,6.0'
p115
(dp116
g9
F0.9672409296035767
sg10
F0.010811062201995554
ssS'2.5,2.75'
p117
(dp118
g9
F0.9655961394309998
sg10
F0.019840767104902696
ssS'4.0,4.5'
p119
(dp120
g9
F0.9582217931747437
sg10
F0.011028694056815355
sssS'2.1,2.4'
p121
(dp122
S'3.0,3.25'
p123
(dp124
g9
F0.972098171710968
sg10
F0.030449346546804902
ssS'3.75,4.0'
p125
(dp126
g9
F0.9971955418586731
sg10
F0.04275366119735237
ssS'20.0,30.0'
p127
(dp128
g9
F0.7629016041755676
sg10
F0.15424209967308494
ssS'500,700'
p129
(dp130
g9
Nsg10
NssS'700,1200'
p131
(dp132
g9
Nsg10
NssS'30.0,40.0'
p133
(dp134
g9
F0.8943442106246948
sg10
F0.2928698899001747
ssS'3.25,3.5'
p135
(dp136
g9
F0.9690531492233276
sg10
F0.036677288197716096
ssS'15.0,20.0'
p137
(dp138
g9
F0.8586785197257996
sg10
F0.13635903472863695
ssS'2.0,2.5'
p139
(dp140
g9
F0.9510602355003357
sg10
F0.02200689175938539
ssS'3.5,3.75'
p141
(dp142
g9
F0.9215185046195984
sg10
F0.03955978395797776
ssS'2.75,3.0'
p143
(dp144
g9
F0.914000928401947
sg10
F0.028863742528204013
ssS'10.0,15.0'
p145
(dp146
g9
F0.9042257070541382
sg10
F0.0564289376374255
ssS'8.0,10.0'
p147
(dp148
g9
F0.893802285194397
sg10
F0.05824772899321783
ssS'6.0,8.0'
p149
(dp150
g9
F0.9333582520484924
sg10
F0.03768003517723319
ssS'4.5,5.0'
p151
(dp152
g9
F0.9999998807907104
sg10
F0.01949621296933156
ssS'5.0,6.0'
p153
(dp154
g9
F0.9999992251396179
sg10
F0.020421193588453897
ssS'2.5,2.75'
p155
(dp156
g9
F0.9999999403953552
sg10
F0.012175044639240823
ssS'4.0,4.5'
p157
(dp158
g9
F0.9571714401245117
sg10
F0.040651577406880246
sssss.