(dp0
S'PfID'
p1
(dp2
S'Pt_Eta'
p3
(dp4
S'0.9,1.2'
p5
(dp6
S'3.0,3.25'
p7
(dp8
S'value'
p9
F0.9582244753837585
sS'error'
p10
F0.1541133540383486
ssS'3.75,4.0'
p11
(dp12
g9
F0.9851512312889099
sg10
F0.005469883770799502
ssS'20.0,30.0'
p13
(dp14
g9
F0.9871833324432373
sg10
F0.007353844792350912
ssS'500,700'
p15
(dp16
g9
Nsg10
NssS'700,1200'
p17
(dp18
g9
Nsg10
NssS'30.0,40.0'
p19
(dp20
g9
F0.9719641804695129
sg10
F0.01566434345793358
ssS'3.25,3.5'
p21
(dp22
g9
F1.0035635232925415
sg10
F0.018491493280854105
ssS'15.0,20.0'
p23
(dp24
g9
F0.9937742948532104
sg10
F0.004456931826698345
ssS'2.0,2.5'
p25
(dp26
g9
F0.02348311059176922
sg10
F5.463206737621651
ssS'3.5,3.75'
p27
(dp28
g9
F0.992014467716217
sg10
F0.0085088213147749
ssS'2.75,3.0'
p29
(dp30
g9
F0.9866236448287964
sg10
F0.7074597132614229
ssS'10.0,15.0'
p31
(dp32
g9
F0.9965815544128418
sg10
F0.002424821094629893
ssS'8.0,10.0'
p33
(dp34
g9
F0.9931144714355469
sg10
F0.002165822688900691
ssS'6.0,8.0'
p35
(dp36
g9
F0.9883612394332886
sg10
F0.00155304892367178
ssS'4.5,5.0'
p37
(dp38
g9
F0.9821715950965881
sg10
F0.0027389115328451527
ssS'5.0,6.0'
p39
(dp40
g9
F0.985970139503479
sg10
F0.0019416359436742832
ssS'2.5,2.75'
p41
(dp42
g9
F9.23376489936345e-07
sg10
F0.22269335469289772
ssS'4.0,4.5'
p43
(dp44
g9
F0.9802104830741882
sg10
F0.003101470633334662
sssS'0.0,0.9'
p45
(dp46
S'3.0,3.25'
p47
(dp48
g9
F0.9427632093429565
sg10
F0.10408464552145273
ssS'3.75,4.0'
p49
(dp50
g9
F0.9861980080604553
sg10
F0.002365085984313342
ssS'20.0,30.0'
p51
(dp52
g9
F0.996423065662384
sg10
F0.0024487568180785345
ssS'500,700'
p53
(dp54
g9
Nsg10
NssS'700,1200'
p55
(dp56
g9
Nsg10
NssS'30.0,40.0'
p57
(dp58
g9
F0.9882835745811462
sg10
F0.005708506716339419
ssS'3.25,3.5'
p59
(dp60
g9
F0.9730550050735474
sg10
F0.008783109924164442
ssS'15.0,20.0'
p61
(dp62
g9
F0.9964215755462646
sg10
F0.001662281728624231
ssS'2.0,2.5'
p63
(dp64
g9
F0.0
sg10
F0.0
ssS'3.5,3.75'
p65
(dp66
g9
F0.9806733131408691
sg10
F0.003488002675930585
ssS'2.75,3.0'
p67
(dp68
g9
F0.0
sg10
F0.0
ssS'10.0,15.0'
p69
(dp70
g9
F0.9953593611717224
sg10
F0.0009281749687767369
ssS'8.0,10.0'
p71
(dp72
g9
F0.9953254461288452
sg10
F0.000885881728276529
ssS'6.0,8.0'
p73
(dp74
g9
F0.9925835132598877
sg10
F0.0006721587659811607
ssS'4.5,5.0'
p75
(dp76
g9
F0.9893874526023865
sg10
F0.0012473643433052015
ssS'5.0,6.0'
p77
(dp78
g9
F0.9927119016647339
sg10
F0.000819401687845158
ssS'2.5,2.75'
p79
(dp80
g9
F0.0
sg10
F0.0
ssS'4.0,4.5'
p81
(dp82
g9
F0.9881826639175415
sg10
F0.0013324412309902711
sssS'1.2,2.1'
p83
(dp84
S'3.0,3.25'
p85
(dp86
g9
F0.9887502789497375
sg10
F0.0018996621007964223
ssS'3.75,4.0'
p87
(dp88
g9
F0.9909470677375793
sg10
F0.0018036577980423854
ssS'20.0,30.0'
p89
(dp90
g9
F0.9731593728065491
sg10
F0.005828986265499117
ssS'500,700'
p91
(dp92
g9
Nsg10
NssS'700,1200'
p93
(dp94
g9
Nsg10
NssS'30.0,40.0'
p95
(dp96
g9
F0.9653115272521973
sg10
F0.013168087313276605
ssS'3.25,3.5'
p97
(dp98
g9
F0.9906314611434937
sg10
F0.0017686111879626155
ssS'15.0,20.0'
p99
(dp100
g9
F0.9951210618019104
sg10
F0.0036365089732551055
ssS'2.0,2.5'
p101
(dp102
g9
F0.9917036890983582
sg10
F0.003326145562326089
ssS'3.5,3.75'
p103
(dp104
g9
F0.9960541725158691
sg10
F0.0018072695218728206
ssS'2.75,3.0'
p105
(dp106
g9
F0.9905647039413452
sg10
F0.0021479388397917147
ssS'10.0,15.0'
p107
(dp108
g9
F0.9965865612030029
sg10
F0.00178854132680733
ssS'8.0,10.0'
p109
(dp110
g9
F0.994531512260437
sg10
F0.0016272349918267813
ssS'6.0,8.0'
p111
(dp112
g9
F0.9948098063468933
sg10
F0.0011227173972780584
ssS'4.5,5.0'
p113
(dp114
g9
F0.996850311756134
sg10
F0.0014578953489292948
ssS'5.0,6.0'
p115
(dp116
g9
F0.994621992111206
sg10
F0.0011727662211220519
ssS'2.5,2.75'
p117
(dp118
g9
F0.9887810945510864
sg10
F0.0026567522269411825
ssS'4.0,4.5'
p119
(dp120
g9
F0.994268000125885
sg10
F0.001320970451345486
sssS'2.1,2.4'
p121
(dp122
S'3.0,3.25'
p123
(dp124
g9
F0.9915659427642822
sg10
F0.0044060804220138255
ssS'3.75,4.0'
p125
(dp126
g9
F0.9952144026756287
sg10
F0.0051127894511640674
ssS'20.0,30.0'
p127
(dp128
g9
F0.9337912797927856
sg10
F0.021803932751351975
ssS'500,700'
p129
(dp130
g9
Nsg10
NssS'700,1200'
p131
(dp132
g9
Nsg10
NssS'30.0,40.0'
p133
(dp134
g9
F1.0000001192092896
sg10
F0.06846188690252449
ssS'3.25,3.5'
p135
(dp136
g9
F0.9950599074363708
sg10
F0.004344282945386681
ssS'15.0,20.0'
p137
(dp138
g9
F0.9467567205429077
sg10
F0.012833808067683715
ssS'2.0,2.5'
p139
(dp140
g9
F0.9954269528388977
sg10
F0.0029959789950526864
ssS'3.5,3.75'
p141
(dp142
g9
F0.9921703934669495
sg10
F0.004543339417621971
ssS'2.75,3.0'
p143
(dp144
g9
F0.9897583723068237
sg10
F0.0037463590207634256
ssS'10.0,15.0'
p145
(dp146
g9
F0.970853865146637
sg10
F0.006591514150804489
ssS'8.0,10.0'
p147
(dp148
g9
F0.9738830327987671
sg10
F0.029671085043953497
ssS'6.0,8.0'
p149
(dp150
g9
F0.9822524189949036
sg10
F0.003964970160423232
ssS'4.5,5.0'
p151
(dp152
g9
F0.9999940991401672
sg10
F0.004631264263816646
ssS'5.0,6.0'
p153
(dp154
g9
F0.9959691166877747
sg10
F0.003860910437312875
ssS'2.5,2.75'
p155
(dp156
g9
F0.9951766729354858
sg10
F0.0038798442927303984
ssS'4.0,4.5'
p157
(dp158
g9
F0.9932044148445129
sg10
F0.004289013397355544
sssss.