(dp0
S'LooseID_PtEtaBins'
p1
(dp2
S'Pt_Eta'
p3
(dp4
S'0.9,1.2'
p5
(dp6
S'3.0,3.25'
p7
(dp8
S'value'
p9
F0.9747748970985413
sS'error'
p10
F0.12675488904088814
ssS'3.75,4.0'
p11
(dp12
g9
F0.9878548383712769
sg10
F0.005558240651604677
ssS'20.0,30.0'
p13
(dp14
g9
F0.9905438423156738
sg10
F0.01696775974293912
ssS'500,700'
p15
(dp16
g9
Nsg10
NssS'700,1200'
p17
(dp18
g9
Nsg10
NssS'30.0,40.0'
p19
(dp20
g9
F0.9999997019767761
sg10
F0.0466812657135474
ssS'3.25,3.5'
p21
(dp22
g9
F1.0068691968917847
sg10
F0.01788909957890005
ssS'15.0,20.0'
p23
(dp24
g9
F1.0034445524215698
sg10
F0.007336125203069623
ssS'2.0,2.5'
p25
(dp26
g9
F0.994488000869751
sg10
F0.0033374197523540756
ssS'3.5,3.75'
p27
(dp28
g9
F0.9870568513870239
sg10
F0.008154034795542893
ssS'2.75,3.0'
p29
(dp30
g9
F0.9921401143074036
sg10
F0.002217977948484827
ssS'10.0,15.0'
p31
(dp32
g9
F0.9961342215538025
sg10
F0.0031213194722905105
ssS'8.0,10.0'
p33
(dp34
g9
F0.9937993884086609
sg10
F0.01096419517191446
ssS'6.0,8.0'
p35
(dp36
g9
F0.9886168837547302
sg10
F0.0017283163473632496
ssS'4.5,5.0'
p37
(dp38
g9
F0.986998975276947
sg10
F0.00295563955075326
ssS'5.0,6.0'
p39
(dp40
g9
F0.9888502359390259
sg10
F0.0020798696955887795
ssS'2.5,2.75'
p41
(dp42
g9
F0.9894409775733948
sg10
F0.002719065880407573
ssS'4.0,4.5'
p43
(dp44
g9
F0.9838080406188965
sg10
F0.03847732492603442
sssS'0.0,0.9'
p45
(dp46
S'3.0,3.25'
p47
(dp48
g9
F0.9921911954879761
sg10
F0.08052639969776654
ssS'3.75,4.0'
p49
(dp50
g9
F0.9872222542762756
sg10
F0.0022833067111332666
ssS'20.0,30.0'
p51
(dp52
g9
F0.9898098707199097
sg10
F0.005607053655013954
ssS'500,700'
p53
(dp54
g9
Nsg10
NssS'700,1200'
p55
(dp56
g9
Nsg10
NssS'30.0,40.0'
p57
(dp58
g9
F0.9678776860237122
sg10
F0.02159012179596312
ssS'3.25,3.5'
p59
(dp60
g9
F0.9773699641227722
sg10
F0.008537295820445084
ssS'15.0,20.0'
p61
(dp62
g9
F0.9958237409591675
sg10
F0.0026736362383126783
ssS'2.0,2.5'
p63
(dp64
g9
F0.2221650779247284
sg10
F0.361370740445917
ssS'3.5,3.75'
p65
(dp66
g9
F0.9804720282554626
sg10
F0.0033662748319168924
ssS'2.75,3.0'
p67
(dp68
g9
F1.0551848411560059
sg10
F0.5356724791883232
ssS'10.0,15.0'
p69
(dp70
g9
F0.9954028725624084
sg10
F0.0012224427144216271
ssS'8.0,10.0'
p71
(dp72
g9
F0.9956534504890442
sg10
F0.0010556910767565882
ssS'6.0,8.0'
p73
(dp74
g9
F0.9938395023345947
sg10
F0.007338093744985
ssS'4.5,5.0'
p75
(dp76
g9
F0.9900259375572205
sg10
F0.0013150563165453411
ssS'5.0,6.0'
p77
(dp78
g9
F0.9931371212005615
sg10
F0.0008827404520006686
ssS'2.5,2.75'
p79
(dp80
g9
F0.4914262592792511
sg10
F0.638702477200715
ssS'4.0,4.5'
p81
(dp82
g9
F0.9894526600837708
sg10
F0.0013381198893541364
sssS'1.2,2.1'
p83
(dp84
S'3.0,3.25'
p85
(dp86
g9
F0.9901402592658997
sg10
F0.0019863618251544347
ssS'3.75,4.0'
p87
(dp88
g9
F0.9902341961860657
sg10
F0.008044470287858183
ssS'20.0,30.0'
p89
(dp90
g9
F0.9853938817977905
sg10
F0.031177012532352395
ssS'500,700'
p91
(dp92
g9
Nsg10
NssS'700,1200'
p93
(dp94
g9
Nsg10
NssS'30.0,40.0'
p95
(dp96
g9
F0.49190253019332886
sg10
F0.35188121551359136
ssS'3.25,3.5'
p97
(dp98
g9
F0.9893129467964172
sg10
F0.001861066659217751
ssS'15.0,20.0'
p99
(dp100
g9
F0.9980156421661377
sg10
F0.008972413341239877
ssS'2.0,2.5'
p101
(dp102
g9
F0.9943112730979919
sg10
F0.0030787589271103247
ssS'3.5,3.75'
p103
(dp104
g9
F0.9944239258766174
sg10
F0.0018304473472561087
ssS'2.75,3.0'
p105
(dp106
g9
F0.9913328289985657
sg10
F0.0037268345945361946
ssS'10.0,15.0'
p107
(dp108
g9
F0.9983727931976318
sg10
F0.002947416302331148
ssS'8.0,10.0'
p109
(dp110
g9
F0.9957240223884583
sg10
F0.0020730416513728444
ssS'6.0,8.0'
p111
(dp112
g9
F0.9965388774871826
sg10
F0.0012254170214200874
ssS'4.5,5.0'
p113
(dp114
g9
F0.9972431063652039
sg10
F0.0014841679122874335
ssS'5.0,6.0'
p115
(dp116
g9
F0.9957690834999084
sg10
F0.0012075992817621917
ssS'2.5,2.75'
p117
(dp118
g9
F0.9968932271003723
sg10
F0.0037279205860078846
ssS'4.0,4.5'
p119
(dp120
g9
F0.995599091053009
sg10
F0.001297812301211036
sssS'2.1,2.4'
p121
(dp122
S'3.0,3.25'
p123
(dp124
g9
F0.9935065507888794
sg10
F0.004081000820411444
ssS'3.75,4.0'
p125
(dp126
g9
F0.9971395134925842
sg10
F0.004833178820988754
ssS'20.0,30.0'
p127
(dp128
g9
F0.9853938817977905
sg10
F0.0
ssS'500,700'
p129
(dp130
g9
Nsg10
NssS'700,1200'
p131
(dp132
g9
Nsg10
NssS'30.0,40.0'
p133
(dp134
g9
F0.49190253019332886
sg10
F0.0
ssS'3.25,3.5'
p135
(dp136
g9
F0.9894556999206543
sg10
F0.004317340980484194
ssS'15.0,20.0'
p137
(dp138
g9
F0.9980156421661377
sg10
F0.0
ssS'2.0,2.5'
p139
(dp140
g9
F0.9943112730979919
sg10
F0.0
ssS'3.5,3.75'
p141
(dp142
g9
F0.9934493899345398
sg10
F0.005011569673330311
ssS'2.75,3.0'
p143
(dp144
g9
F0.9913328289985657
sg10
F0.0
ssS'10.0,15.0'
p145
(dp146
g9
F0.9318442940711975
sg10
F0.053929461459151416
ssS'8.0,10.0'
p147
(dp148
g9
F0.9995031952857971
sg10
F0.012324551706177848
ssS'6.0,8.0'
p149
(dp150
g9
F0.9918637871742249
sg10
F0.005511695842570056
ssS'4.5,5.0'
p151
(dp152
g9
F0.9981244206428528
sg10
F0.004832237856325507
ssS'5.0,6.0'
p153
(dp154
g9
F0.9898459911346436
sg10
F0.00449454882234668
ssS'2.5,2.75'
p155
(dp156
g9
F0.9968932271003723
sg10
F0.0
ssS'4.0,4.5'
p157
(dp158
g9
F0.9905397891998291
sg10
F0.004315015300451288
sssss.