(dp0
S'LooseID_abseta_pt_Bins'
p1
(dp2
S'Pt_Eta'
p3
(dp4
S'0.9,1.2'
p5
(dp6
S'3.0,3.25'
p7
(dp8
S'value'
p9
F0.6378135085105896
sS'error'
p10
F0.03821420691298362
ssS'3.75,4.0'
p11
(dp12
g9
F0.9379913806915283
sg10
F0.004403117089724407
ssS'20.0,30.0'
p13
(dp14
g9
F0.9864840507507324
sg10
F0.016543460347177533
ssS'500,700'
p15
(dp16
g9
Nsg10
NssS'700,1200'
p17
(dp18
g9
Nsg10
NssS'30.0,40.0'
p19
(dp20
g9
F0.9999997019767761
sg10
F0.03339987157793993
ssS'3.25,3.5'
p21
(dp22
g9
F0.8709506392478943
sg10
F0.012377089515147646
ssS'15.0,20.0'
p23
(dp24
g9
F0.9954779148101807
sg10
F0.007021329675225516
ssS'2.0,2.5'
p25
(dp26
g9
F0.9714433550834656
sg10
F0.0030596846152300097
ssS'3.5,3.75'
p27
(dp28
g9
F0.920433521270752
sg10
F0.006173227243381399
ssS'2.75,3.0'
p29
(dp30
g9
F0.9749245643615723
sg10
F0.0019909941874486953
ssS'10.0,15.0'
p31
(dp32
g9
F0.9879473447799683
sg10
F0.0029801660154372797
ssS'8.0,10.0'
p33
(dp34
g9
F0.9891037344932556
sg10
F0.010896262656860722
ssS'6.0,8.0'
p35
(dp36
g9
F0.9819789528846741
sg10
F0.0016452495260861379
ssS'4.5,5.0'
p37
(dp38
g9
F0.961166262626648
sg10
F0.0025669209338690115
ssS'5.0,6.0'
p39
(dp40
g9
F0.9716248512268066
sg10
F0.0018716371381935716
ssS'2.5,2.75'
p41
(dp42
g9
F0.9716262817382812
sg10
F0.0024660049164507195
ssS'4.0,4.5'
p43
(dp44
g9
F0.9468687176704407
sg10
F0.0026264465354744956
sssS'0.0,0.9'
p45
(dp46
S'3.0,3.25'
p47
(dp48
g9
F0.5827661752700806
sg10
F0.03340539175328475
ssS'3.75,4.0'
p49
(dp50
g9
F0.9556336998939514
sg10
F0.001920901528855381
ssS'20.0,30.0'
p51
(dp52
g9
F0.9880393743515015
sg10
F0.005524500361002602
ssS'500,700'
p53
(dp54
g9
Nsg10
NssS'700,1200'
p55
(dp56
g9
Nsg10
NssS'30.0,40.0'
p57
(dp58
g9
F0.9678776860237122
sg10
F0.02045510043491271
ssS'3.25,3.5'
p59
(dp60
g9
F0.902836263179779
sg10
F0.006823622804494122
ssS'15.0,20.0'
p61
(dp62
g9
F0.9917131662368774
sg10
F0.0025711398994305522
ssS'2.0,2.5'
p63
(dp64
g9
F0.0519084595143795
sg10
F0.07012392730602254
ssS'3.5,3.75'
p65
(dp66
g9
F0.9477635622024536
sg10
F0.0028997959229379562
ssS'2.75,3.0'
p67
(dp68
g9
F0.31430983543395996
sg10
F0.07645757633626812
ssS'10.0,15.0'
p69
(dp70
g9
F0.9901480078697205
sg10
F0.001171189836080616
ssS'8.0,10.0'
p71
(dp72
g9
F0.991201639175415
sg10
F0.0010115233638864946
ssS'6.0,8.0'
p73
(dp74
g9
F0.9865894317626953
sg10
F0.0007080977025678565
ssS'4.5,5.0'
p75
(dp76
g9
F0.9680478572845459
sg10
F0.0011190572676365218
ssS'5.0,6.0'
p77
(dp78
g9
F0.981048047542572
sg10
F0.0007907522342397395
ssS'2.5,2.75'
p79
(dp80
g9
F0.07055027782917023
sg10
F0.0627282521909241
ssS'4.0,4.5'
p81
(dp82
g9
F0.9624078869819641
sg10
F0.0011215494555312454
sssS'1.2,2.1'
p83
(dp84
S'3.0,3.25'
p85
(dp86
g9
F0.9762319326400757
sg10
F0.0017976760037827035
ssS'3.75,4.0'
p87
(dp88
g9
F0.9824442267417908
sg10
F0.0017364484489095903
ssS'20.0,30.0'
p89
(dp90
g9
F0.9775438904762268
sg10
F0.02991586536135259
ssS'500,700'
p91
(dp92
g9
Nsg10
NssS'700,1200'
p93
(dp94
g9
Nsg10
NssS'30.0,40.0'
p95
(dp96
g9
F0.4265228807926178
sg10
F0.2961612644685983
ssS'3.25,3.5'
p97
(dp98
g9
F0.9792705774307251
sg10
F0.0017249449909724445
ssS'15.0,20.0'
p99
(dp100
g9
F0.9945378303527832
sg10
F0.008790449037499141
ssS'2.0,2.5'
p101
(dp102
g9
F0.9847460985183716
sg10
F0.002870319864533908
ssS'3.5,3.75'
p103
(dp104
g9
F0.9850282669067383
sg10
F0.001692916553626144
ssS'2.75,3.0'
p105
(dp106
g9
F0.987643837928772
sg10
F0.003592853259041287
ssS'10.0,15.0'
p107
(dp108
g9
F0.9927230477333069
sg10
F0.0028564076733304973
ssS'8.0,10.0'
p109
(dp110
g9
F0.9944112300872803
sg10
F0.002055063451849799
ssS'6.0,8.0'
p111
(dp112
g9
F0.995205283164978
sg10
F0.0012133494322626082
ssS'4.5,5.0'
p113
(dp114
g9
F0.9919044971466064
sg10
F0.0014117232994981664
ssS'5.0,6.0'
p115
(dp116
g9
F0.9927746653556824
sg10
F0.001173661878407171
ssS'2.5,2.75'
p117
(dp118
g9
F0.9892548322677612
sg10
F0.0034598736917841964
ssS'4.0,4.5'
p119
(dp120
g9
F0.9896634221076965
sg10
F0.0012273835403264395
sssS'2.1,2.4'
p121
(dp122
S'3.0,3.25'
p123
(dp124
g9
F0.9888184666633606
sg10
F0.003928898889193495
ssS'3.75,4.0'
p125
(dp126
g9
F0.9924681782722473
sg10
F0.00465518853070061
ssS'20.0,30.0'
p127
(dp128
g9
F0.9775438904762268
sg10
F0.0
ssS'500,700'
p129
(dp130
g9
Nsg10
NssS'700,1200'
p131
(dp132
g9
Nsg10
NssS'30.0,40.0'
p133
(dp134
g9
F0.4265228807926178
sg10
F0.0
ssS'3.25,3.5'
p135
(dp136
g9
F0.9867008328437805
sg10
F0.004160611289034616
ssS'15.0,20.0'
p137
(dp138
g9
F0.9945378303527832
sg10
F0.0
ssS'2.0,2.5'
p139
(dp140
g9
F0.9847460985183716
sg10
F0.0
ssS'3.5,3.75'
p141
(dp142
g9
F0.9876238107681274
sg10
F0.0048036288846889765
ssS'2.75,3.0'
p143
(dp144
g9
F0.987643837928772
sg10
F0.0
ssS'10.0,15.0'
p145
(dp146
g9
F0.9301117062568665
sg10
F0.0532995376208017
ssS'8.0,10.0'
p147
(dp148
g9
F0.9969124794006348
sg10
F0.01219533174359784
ssS'6.0,8.0'
p149
(dp150
g9
F0.9905276894569397
sg10
F0.005339653882199994
ssS'4.5,5.0'
p151
(dp152
g9
F0.9955752491950989
sg10
F0.004753307546877831
ssS'5.0,6.0'
p153
(dp154
g9
F0.9886656403541565
sg10
F0.004438705752388073
ssS'2.5,2.75'
p155
(dp156
g9
F0.9892548322677612
sg10
F0.0
ssS'4.0,4.5'
p157
(dp158
g9
F0.9879758954048157
sg10
F0.004239643928176065
sssss.