(dp0
S'LooseID_abseta_pt_Bins'
p1
(dp2
S'Pt_Eta'
p3
(dp4
S'0.9,1.2'
p5
(dp6
S'3.0,3.25'
p7
(dp8
S'value'
p9
F0.6543187499046326
sS'error'
p10
F0.07551466503801599
ssS'3.75,4.0'
p11
(dp12
g9
F0.9495235085487366
sg10
F0.002945493067309644
ssS'20.0,30.0'
p13
(dp14
g9
F0.9959014654159546
sg10
F0.0034772464761731858
ssS'500,700'
p15
(dp16
g9
Nsg10
NssS'700,1200'
p17
(dp18
g9
Nsg10
NssS'30.0,40.0'
p19
(dp20
g9
F1.0
sg10
F0.032612724221456155
ssS'3.25,3.5'
p21
(dp22
g9
F0.8650087118148804
sg10
F0.009224228326472843
ssS'15.0,20.0'
p23
(dp24
g9
F0.9920607209205627
sg10
F0.0019087557363365894
ssS'2.0,2.5'
p25
(dp26
g9
F0.9768276214599609
sg10
F0.001131615806760794
ssS'3.5,3.75'
p27
(dp28
g9
F0.9325030446052551
sg10
F0.004497461846830964
ssS'2.75,3.0'
p29
(dp30
g9
F0.9826480746269226
sg10
F0.0008936618267614276
ssS'10.0,15.0'
p31
(dp32
g9
F0.9917813539505005
sg10
F0.0008409629242667647
ssS'8.0,10.0'
p33
(dp34
g9
F0.9952750205993652
sg10
F0.0005967485533271359
ssS'6.0,8.0'
p35
(dp36
g9
F0.9932856559753418
sg10
F0.0004958003978351182
ssS'4.5,5.0'
p37
(dp38
g9
F0.9738270044326782
sg10
F0.0013192350919432932
ssS'5.0,6.0'
p39
(dp40
g9
F0.9825803637504578
sg10
F0.0008298840164104235
ssS'2.5,2.75'
p41
(dp42
g9
F0.981995165348053
sg10
F0.0010347939330861652
ssS'4.0,4.5'
p43
(dp44
g9
F0.9624527096748352
sg10
F0.03754731557258517
sssS'0.0,0.9'
p45
(dp46
S'3.0,3.25'
p47
(dp48
g9
F0.5873526930809021
sg10
F0.033746705504401
ssS'3.75,4.0'
p49
(dp50
g9
F0.9680026173591614
sg10
F0.0011074617165190547
ssS'20.0,30.0'
p51
(dp52
g9
F0.9982112646102905
sg10
F0.0009073409831396965
ssS'500,700'
p53
(dp54
g9
Nsg10
NssS'700,1200'
p55
(dp56
g9
Nsg10
NssS'30.0,40.0'
p57
(dp58
g9
F1.0
sg10
F0.007137397199775963
ssS'3.25,3.5'
p59
(dp60
g9
F0.923740565776825
sg10
F0.00404515502662559
ssS'15.0,20.0'
p61
(dp62
g9
F0.9958721995353699
sg10
F0.000694767409909396
ssS'2.0,2.5'
p63
(dp64
g9
F0.2336481511592865
sg10
F0.21168214532175628
ssS'3.5,3.75'
p65
(dp66
g9
F0.966640055179596
sg10
F0.0015057317200083433
ssS'2.75,3.0'
p67
(dp68
g9
F0.29787182807922363
sg10
F0.13272618985287332
ssS'10.0,15.0'
p69
(dp70
g9
F0.9947208762168884
sg10
F0.0003285337334235568
ssS'8.0,10.0'
p71
(dp72
g9
F0.9955287575721741
sg10
F0.0002864822370063181
ssS'6.0,8.0'
p73
(dp74
g9
F0.9927049875259399
sg10
F0.007295006029479634
ssS'4.5,5.0'
p75
(dp76
g9
F0.9778004884719849
sg10
F0.0006397478620358594
ssS'5.0,6.0'
p77
(dp78
g9
F0.9878273606300354
sg10
F0.0003700809404076775
ssS'2.5,2.75'
p79
(dp80
g9
F0.14356228709220886
sg10
F0.13609284383746695
ssS'4.0,4.5'
p81
(dp82
g9
F0.9726669192314148
sg10
F0.0006674534115612568
sssS'1.2,2.1'
p83
(dp84
S'3.0,3.25'
p85
(dp86
g9
F0.985953152179718
sg10
F0.0007848649152266577
ssS'3.75,4.0'
p87
(dp88
g9
F0.9921332001686096
sg10
F0.007866824385162952
ssS'20.0,30.0'
p89
(dp90
g9
F0.9920336604118347
sg10
F0.007966334015581
ssS'500,700'
p91
(dp92
g9
Nsg10
NssS'700,1200'
p93
(dp94
g9
Nsg10
NssS'30.0,40.0'
p95
(dp96
g9
F0.8670881986618042
sg10
F0.14913770811262703
ssS'3.25,3.5'
p97
(dp98
g9
F0.9898491501808167
sg10
F0.0006536496713322268
ssS'15.0,20.0'
p99
(dp100
g9
F0.9965152740478516
sg10
F0.0016379105075409915
ssS'2.0,2.5'
p101
(dp102
g9
F0.9903801083564758
sg10
F0.0010347344093981537
ssS'3.5,3.75'
p103
(dp104
g9
F0.9905516505241394
sg10
F0.0006529141664685011
ssS'2.75,3.0'
p105
(dp106
g9
F0.9962787628173828
sg10
F0.0009449521280133353
ssS'10.0,15.0'
p107
(dp108
g9
F0.9943410754203796
sg10
F0.0006569311079706223
ssS'8.0,10.0'
p109
(dp110
g9
F0.9986815452575684
sg10
F0.0002518582023902528
ssS'6.0,8.0'
p111
(dp112
g9
F0.9986617565155029
sg10
F0.00015997005442759476
ssS'4.5,5.0'
p113
(dp114
g9
F0.9946466088294983
sg10
F0.00043278371463403024
ssS'5.0,6.0'
p115
(dp116
g9
F0.9969928860664368
sg10
F0.00026957393843151577
ssS'2.5,2.75'
p117
(dp118
g9
F0.9923378229141235
sg10
F0.001313474938996366
ssS'4.0,4.5'
p119
(dp120
g9
F0.9940381050109863
sg10
F0.0003990253103612013
sssS'2.1,2.4'
p121
(dp122
S'3.0,3.25'
p123
(dp124
g9
F0.9952812790870667
sg10
F0.001037032684248166
ssS'3.75,4.0'
p125
(dp126
g9
F0.9953152537345886
sg10
F0.0012161130537719034
ssS'20.0,30.0'
p127
(dp128
g9
F0.9920336604118347
sg10
F0.0
ssS'500,700'
p129
(dp130
g9
Nsg10
NssS'700,1200'
p131
(dp132
g9
Nsg10
NssS'30.0,40.0'
p133
(dp134
g9
F0.8670881986618042
sg10
F0.0
ssS'3.25,3.5'
p135
(dp136
g9
F0.997215747833252
sg10
F0.0011186364674114935
ssS'15.0,20.0'
p137
(dp138
g9
F0.9965152740478516
sg10
F0.0
ssS'2.0,2.5'
p139
(dp140
g9
F0.9903801083564758
sg10
F0.0
ssS'3.5,3.75'
p141
(dp142
g9
F0.9941360354423523
sg10
F0.00133056592645853
ssS'2.75,3.0'
p143
(dp144
g9
F0.9962787628173828
sg10
F0.0
ssS'10.0,15.0'
p145
(dp146
g9
F0.9981406927108765
sg10
F0.008083605222486554
ssS'8.0,10.0'
p147
(dp148
g9
F0.9974079728126526
sg10
F0.0015441559783456458
ssS'6.0,8.0'
p149
(dp150
g9
F0.9986529350280762
sg10
F0.0013470354262223871
ssS'4.5,5.0'
p151
(dp152
g9
F0.9974460601806641
sg10
F0.0007999179569667405
ssS'5.0,6.0'
p153
(dp154
g9
F0.9988075494766235
sg10
F0.0006782375431277105
ssS'2.5,2.75'
p155
(dp156
g9
F0.9923378229141235
sg10
F0.0
ssS'4.0,4.5'
p157
(dp158
g9
F0.9974116086959839
sg10
F0.0007476897861475188
sssss.