(dp0
S'Loose_PtEtaBins'
p1
(dp2
S'Pt_Eta'
p3
(dp4
S'0.9,1.2'
p5
(dp6
S'3.0,3.25'
p7
(dp8
S'value'
p9
F1.0950140953063965
sS'error'
p10
F0.46611027104449976
ssS'3.75,4.0'
p11
(dp12
g9
F0.9707427620887756
sg10
F0.033704900721399776
ssS'20.0,30.0'
p13
(dp14
g9
F1.0080400705337524
sg10
F0.04848625794895564
ssS'500,700'
p15
(dp16
g9
Nsg10
NssS'700,1200'
p17
(dp18
g9
Nsg10
NssS'30.0,40.0'
p19
(dp20
g9
F0.9224242568016052
sg10
F0.08450120230367927
ssS'3.25,3.5'
p21
(dp22
g9
F0.8107579350471497
sg10
F0.1045051092259438
ssS'15.0,20.0'
p23
(dp24
g9
F1.0078245401382446
sg10
F0.035632091247308435
ssS'2.0,2.5'
p25
(dp26
g9
F0.40764564275741577
sg10
F1.223136943529045
ssS'3.5,3.75'
p27
(dp28
g9
F0.8743882775306702
sg10
F0.048414775824993116
ssS'2.75,3.0'
p29
(dp30
g9
F0.24304187297821045
sg10
F0.22843844295951085
ssS'10.0,15.0'
p31
(dp32
g9
F0.9933677911758423
sg10
F0.02147900462675434
ssS'8.0,10.0'
p33
(dp34
g9
F0.9846383333206177
sg10
F0.019411945206285447
ssS'6.0,8.0'
p35
(dp36
g9
F0.9641849994659424
sg10
F0.013086743116579822
ssS'4.5,5.0'
p37
(dp38
g9
F0.959226667881012
sg10
F0.017856041677886736
ssS'5.0,6.0'
p39
(dp40
g9
F0.9913796186447144
sg10
F0.013805287274105639
ssS'2.5,2.75'
p41
(dp42
g9
F0.0451260581612587
sg10
F0.31263089341259953
ssS'4.0,4.5'
p43
(dp44
g9
F0.974007785320282
sg10
F0.018271611103741814
sssS'0.0,0.9'
p45
(dp46
S'3.0,3.25'
p47
(dp48
g9
F0.1834372580051422
sg10
F0.11451727202602963
ssS'3.75,4.0'
p49
(dp50
g9
F0.9333958029747009
sg10
F0.026516159586364975
ssS'20.0,30.0'
p51
(dp52
g9
F1.006057620048523
sg10
F0.01687660991240316
ssS'500,700'
p53
(dp54
g9
Nsg10
NssS'700,1200'
p55
(dp56
g9
Nsg10
NssS'30.0,40.0'
p57
(dp58
g9
F0.980571985244751
sg10
F0.04309717747511707
ssS'3.25,3.5'
p59
(dp60
g9
F0.6866719722747803
sg10
F0.08760576047268541
ssS'15.0,20.0'
p61
(dp62
g9
F0.9791754484176636
sg10
F0.015354666189007616
ssS'2.0,2.5'
p63
(dp64
g9
F0.0
sg10
F0.0
ssS'3.5,3.75'
p65
(dp66
g9
F0.9172776341438293
sg10
F0.04672789303123395
ssS'2.75,3.0'
p67
(dp68
g9
F0.0
sg10
F0.0
ssS'10.0,15.0'
p69
(dp70
g9
F0.9848455190658569
sg10
F0.008549401179561053
ssS'8.0,10.0'
p71
(dp72
g9
F0.9952681064605713
sg10
F0.0084905738849093
ssS'6.0,8.0'
p73
(dp74
g9
F0.9877480864524841
sg10
F0.006008866525602412
ssS'4.5,5.0'
p75
(dp76
g9
F0.9760176539421082
sg10
F0.009479743862355953
ssS'5.0,6.0'
p77
(dp78
g9
F0.9888254404067993
sg10
F0.006443615644786264
ssS'2.5,2.75'
p79
(dp80
g9
F0.0
sg10
F0.0
ssS'4.0,4.5'
p81
(dp82
g9
F0.9608432054519653
sg10
F0.011617815574267608
sssS'1.2,2.1'
p83
(dp84
S'3.0,3.25'
p85
(dp86
g9
F0.9534256458282471
sg10
F0.012341719044217148
ssS'3.75,4.0'
p87
(dp88
g9
F0.9709465503692627
sg10
F0.01337035858769595
ssS'20.0,30.0'
p89
(dp90
g9
F0.9145078659057617
sg10
F0.03660411888888999
ssS'500,700'
p91
(dp92
g9
Nsg10
NssS'700,1200'
p93
(dp94
g9
Nsg10
NssS'30.0,40.0'
p95
(dp96
g9
F0.9659279584884644
sg10
F0.09061319670177904
ssS'3.25,3.5'
p97
(dp98
g9
F0.9830688834190369
sg10
F0.01264645396055526
ssS'15.0,20.0'
p99
(dp100
g9
F1.0039418935775757
sg10
F0.022951132512762165
ssS'2.0,2.5'
p101
(dp102
g9
F1.003091812133789
sg10
F0.025633302696180933
ssS'3.5,3.75'
p103
(dp104
g9
F0.9988461136817932
sg10
F0.013948167295466789
ssS'2.75,3.0'
p105
(dp106
g9
F0.9639725685119629
sg10
F0.014455029794468699
ssS'10.0,15.0'
p107
(dp108
g9
F0.9949817061424255
sg10
F0.015191675235191287
ssS'8.0,10.0'
p109
(dp110
g9
F0.9791659116744995
sg10
F0.014377587752905222
ssS'6.0,8.0'
p111
(dp112
g9
F0.97955721616745
sg10
F0.010878816153405935
ssS'4.5,5.0'
p113
(dp114
g9
F0.9922630786895752
sg10
F0.01317534648449004
ssS'5.0,6.0'
p115
(dp116
g9
F0.970229983329773
sg10
F0.010846593446354663
ssS'2.5,2.75'
p117
(dp118
g9
F0.9838525056838989
sg10
F0.020237915572796847
ssS'4.0,4.5'
p119
(dp120
g9
F0.964439868927002
sg10
F0.011105727907700657
sssS'2.1,2.4'
p121
(dp122
S'3.0,3.25'
p123
(dp124
g9
F0.9765893220901489
sg10
F0.030601122211763976
ssS'3.75,4.0'
p125
(dp126
g9
F1.001455545425415
sg10
F0.042946233313479944
ssS'20.0,30.0'
p127
(dp128
g9
F0.7708469033241272
sg10
F0.15586646930472275
ssS'500,700'
p129
(dp130
g9
Nsg10
NssS'700,1200'
p131
(dp132
g9
Nsg10
NssS'30.0,40.0'
p133
(dp134
g9
F0.8943442702293396
sg10
F0.2929145536614166
ssS'3.25,3.5'
p135
(dp136
g9
F0.9725931882858276
sg10
F0.03682313517150579
ssS'15.0,20.0'
p137
(dp138
g9
F0.8648414611816406
sg10
F0.13734426652353002
ssS'2.0,2.5'
p139
(dp140
g9
F0.9610259532928467
sg10
F0.022253667039318834
ssS'3.5,3.75'
p141
(dp142
g9
F0.9257615804672241
sg10
F0.03975167893815216
ssS'2.75,3.0'
p143
(dp144
g9
F0.9188170433044434
sg10
F0.029027673299562268
ssS'10.0,15.0'
p145
(dp146
g9
F0.9099482297897339
sg10
F0.056790503386981744
ssS'8.0,10.0'
p147
(dp148
g9
F0.8966835737228394
sg10
F0.05844064345677024
ssS'6.0,8.0'
p149
(dp150
g9
F0.9351958632469177
sg10
F0.03775573023273913
ssS'4.5,5.0'
p151
(dp152
g9
F1.003348708152771
sg10
F0.0195726002306851
ssS'5.0,6.0'
p153
(dp154
g9
F1.0017328262329102
sg10
F0.02046156955600708
ssS'2.5,2.75'
p155
(dp156
g9
F1.0068902969360352
sg10
F0.012292788337191525
ssS'4.0,4.5'
p157
(dp158
g9
F0.9600620865821838
sg10
F0.04077857022745374
sssss.