(dp0
S'Loose_PtEtaBins'
p1
(dp2
S'Pt_Eta'
p3
(dp4
S'0.9,1.2'
p5
(dp6
S'3.0,3.25'
p7
(dp8
S'value'
p9
F0.6266135573387146
sS'error'
p10
F0.032170911151471256
ssS'3.75,4.0'
p11
(dp12
g9
F0.9493826031684875
sg10
F0.0027854163351179223
ssS'20.0,30.0'
p13
(dp14
g9
F0.992021918296814
sg10
F0.0015392540959809154
ssS'500,700'
p15
(dp16
g9
Nsg10
NssS'700,1200'
p17
(dp18
g9
Nsg10
NssS'30.0,40.0'
p19
(dp20
g9
F0.9931639432907104
sg10
F0.002880429725108176
ssS'3.25,3.5'
p21
(dp22
g9
F0.8693790435791016
sg10
F0.009032751570625504
ssS'15.0,20.0'
p23
(dp24
g9
F0.9922362565994263
sg10
F0.0010093876679229696
ssS'2.0,2.5'
p25
(dp26
g9
F0.10123531520366669
sg10
F0.10123531819902837
ssS'3.5,3.75'
p27
(dp28
g9
F0.9340344667434692
sg10
F0.004388663162625284
ssS'2.75,3.0'
p29
(dp30
g9
F0.2247200459241867
sg10
F0.11184631316695938
ssS'10.0,15.0'
p31
(dp32
g9
F0.9907875061035156
sg10
F0.0006176341148188363
ssS'8.0,10.0'
p33
(dp34
g9
F0.9945656061172485
sg10
F0.00048042445306531445
ssS'6.0,8.0'
p35
(dp36
g9
F0.9919532537460327
sg10
F0.00043182446117797643
ssS'4.5,5.0'
p37
(dp38
g9
F0.9743419885635376
sg10
F0.0038589184331158377
ssS'5.0,6.0'
p39
(dp40
g9
F0.98240727186203
sg10
F0.00073333434391068
ssS'2.5,2.75'
p41
(dp42
g9
F0.10605572164058685
sg10
F0.10212631786720672
ssS'4.0,4.5'
p43
(dp44
g9
F0.9631043672561646
sg10
F0.0014216450659891172
sssS'0.0,0.9'
p45
(dp46
S'3.0,3.25'
p47
(dp48
g9
F0.3169064521789551
sg10
F0.023503272991139287
ssS'3.75,4.0'
p49
(dp50
g9
F0.9684062004089355
sg10
F0.0010976175909114076
ssS'20.0,30.0'
p51
(dp52
g9
F0.993977427482605
sg10
F0.0006411880443639604
ssS'500,700'
p53
(dp54
g9
Nsg10
NssS'700,1200'
p55
(dp56
g9
Nsg10
NssS'30.0,40.0'
p57
(dp58
g9
F0.9942393898963928
sg10
F0.0014469814127203453
ssS'3.25,3.5'
p59
(dp60
g9
F0.9245343804359436
sg10
F0.004031866470522404
ssS'15.0,20.0'
p61
(dp62
g9
F0.9947102069854736
sg10
F0.00043103073629380343
ssS'2.0,2.5'
p63
(dp64
g9
F0.0
sg10
F0.6882181179158507
ssS'3.5,3.75'
p65
(dp66
g9
F0.9666489958763123
sg10
F0.0015047499341337876
ssS'2.75,3.0'
p67
(dp68
g9
F0.0
sg10
F0.10354823417507508
ssS'10.0,15.0'
p69
(dp70
g9
F0.9940396547317505
sg10
F0.00025533708790086883
ssS'8.0,10.0'
p71
(dp72
g9
F0.9946745038032532
sg10
F0.00024127982728789732
ssS'6.0,8.0'
p73
(dp74
g9
F0.9928103685379028
sg10
F0.0002130845473370025
ssS'4.5,5.0'
p75
(dp76
g9
F0.9781378507614136
sg10
F0.0005722410311714776
ssS'5.0,6.0'
p77
(dp78
g9
F0.9873504638671875
sg10
F0.00033319017730621813
ssS'2.5,2.75'
p79
(dp80
g9
F0.0
sg10
F0.29247246340094557
ssS'4.0,4.5'
p81
(dp82
g9
F0.9725760221481323
sg10
F0.000634083330438413
sssS'1.2,2.1'
p83
(dp84
S'3.0,3.25'
p85
(dp86
g9
F0.9862016439437866
sg10
F0.0006848109159689472
ssS'3.75,4.0'
p87
(dp88
g9
F0.9915823340415955
sg10
F0.0005383936017416602
ssS'20.0,30.0'
p89
(dp90
g9
F0.9949139356613159
sg10
F0.0008388626215089044
ssS'500,700'
p91
(dp92
g9
Nsg10
NssS'700,1200'
p93
(dp94
g9
Nsg10
NssS'30.0,40.0'
p95
(dp96
g9
F0.9925260543823242
sg10
F0.003080911680798065
ssS'3.25,3.5'
p97
(dp98
g9
F0.9898147583007812
sg10
F0.0005753902142618053
ssS'15.0,20.0'
p99
(dp100
g9
F0.9960730075836182
sg10
F0.0005239285434610749
ssS'2.0,2.5'
p101
(dp102
g9
F0.9774819612503052
sg10
F0.0010278338447208206
ssS'3.5,3.75'
p103
(dp104
g9
F0.990472137928009
sg10
F0.0005714792015340487
ssS'2.75,3.0'
p105
(dp106
g9
F0.9831225275993347
sg10
F0.0007847164101346603
ssS'10.0,15.0'
p107
(dp108
g9
F0.9954866170883179
sg10
F0.00029359723624336107
ssS'8.0,10.0'
p109
(dp110
g9
F0.9984334707260132
sg10
F0.00017485855642831836
ssS'6.0,8.0'
p111
(dp112
g9
F0.9984354376792908
sg10
F0.001564546330869998
ssS'4.5,5.0'
p113
(dp114
g9
F0.9947034120559692
sg10
F0.00037246446694952606
ssS'5.0,6.0'
p115
(dp116
g9
F0.9969192147254944
sg10
F0.0002204313660622219
ssS'2.5,2.75'
p117
(dp118
g9
F0.9814440011978149
sg10
F0.0009415585768396546
ssS'4.0,4.5'
p119
(dp120
g9
F0.9935526847839355
sg10
F0.0003589418923912751
sssS'2.1,2.4'
p121
(dp122
S'3.0,3.25'
p123
(dp124
g9
F0.9954012036323547
sg10
F0.0008399630408033922
ssS'3.75,4.0'
p125
(dp126
g9
F0.9957461953163147
sg10
F0.0009181895727905655
ssS'20.0,30.0'
p127
(dp128
g9
F0.989692747592926
sg10
F0.003041226639016111
ssS'500,700'
p129
(dp130
g9
Nsg10
NssS'700,1200'
p131
(dp132
g9
Nsg10
NssS'30.0,40.0'
p133
(dp134
g9
F0.9999999403953552
sg10
F0.005718168277158498
ssS'3.25,3.5'
p135
(dp136
g9
F0.996360182762146
sg10
F0.0009573704198099338
ssS'15.0,20.0'
p137
(dp138
g9
F0.9928739070892334
sg10
F0.001539958149776309
ssS'2.0,2.5'
p139
(dp140
g9
F0.9896301031112671
sg10
F0.0008735621289463857
ssS'3.5,3.75'
p141
(dp142
g9
F0.9954166412353516
sg10
F0.0009462977969777716
ssS'2.75,3.0'
p143
(dp144
g9
F0.9947583675384521
sg10
F0.0008975306821780479
ssS'10.0,15.0'
p145
(dp146
g9
F0.9937111735343933
sg10
F0.0007762028410731592
ssS'8.0,10.0'
p147
(dp148
g9
F0.9967867136001587
sg10
F0.0008619781329570135
ssS'6.0,8.0'
p149
(dp150
g9
F0.9980350732803345
sg10
F0.000360450865495099
ssS'4.5,5.0'
p151
(dp152
g9
F0.9966623187065125
sg10
F0.0006546067850547133
ssS'5.0,6.0'
p153
(dp154
g9
F0.9982694387435913
sg10
F0.00044960593151888867
ssS'2.5,2.75'
p155
(dp156
g9
F0.9931567907333374
sg10
F0.0008992423844264046
ssS'4.0,4.5'
p157
(dp158
g9
F0.9969891309738159
sg10
F0.0006096871817433174
sssss.