(dp0
S'MTau3MuID'
p1
(dp2
S'Pt_Eta'
p3
(dp4
S'0.9,1.2'
p5
(dp6
S'3.0,3.25'
p7
(dp8
S'value'
p9
F0.29293885827064514
sS'error'
p10
F0.29338437575304066
ssS'3.75,4.0'
p11
(dp12
g9
F0.9124637842178345
sg10
F0.007624849499899438
ssS'20.0,30.0'
p13
(dp14
g9
F0.9553292989730835
sg10
F0.009433284122472666
ssS'500,700'
p15
(dp16
g9
Nsg10
NssS'700,1200'
p17
(dp18
g9
Nsg10
NssS'30.0,40.0'
p19
(dp20
g9
F0.9378408789634705
sg10
F0.022734660552863908
ssS'3.25,3.5'
p21
(dp22
g9
F0.6276789307594299
sg10
F0.015355725649710722
ssS'15.0,20.0'
p23
(dp24
g9
F0.9543831944465637
sg10
F0.04759651216790073
ssS'2.0,2.5'
p25
(dp26
g9
F0.0
sg10
F0.0
ssS'3.5,3.75'
p27
(dp28
g9
F0.8439208269119263
sg10
F0.010288808580859676
ssS'2.75,3.0'
p29
(dp30
g9
F0.11502707004547119
sg10
F0.0455000736318562
ssS'10.0,15.0'
p31
(dp32
g9
F0.9602491855621338
sg10
F0.01316057292804492
ssS'8.0,10.0'
p33
(dp34
g9
F0.9642674326896667
sg10
F0.0033418508572152584
ssS'6.0,8.0'
p35
(dp36
g9
F0.9751883149147034
sg10
F0.002500098516837643
ssS'4.5,5.0'
p37
(dp38
g9
F0.9649778008460999
sg10
F0.004169825519637585
ssS'5.0,6.0'
p39
(dp40
g9
F0.9752305150032043
sg10
F0.0030038799700727965
ssS'2.5,2.75'
p41
(dp42
g9
F0.0953945517539978
sg10
F0.12678879987516548
ssS'4.0,4.5'
p43
(dp44
g9
F0.9394907355308533
sg10
F0.004446096747805132
sssS'0.0,0.9'
p45
(dp46
S'3.0,3.25'
p47
(dp48
g9
F0.241348996758461
sg10
F0.039611702382887595
ssS'3.75,4.0'
p49
(dp50
g9
F0.8733060359954834
sg10
F0.03997757320378102
ssS'20.0,30.0'
p51
(dp52
g9
F0.9835436344146729
sg10
F0.003921374633542533
ssS'500,700'
p53
(dp54
g9
Nsg10
NssS'700,1200'
p55
(dp56
g9
Nsg10
NssS'30.0,40.0'
p57
(dp58
g9
F0.980897068977356
sg10
F0.00888074669276016
ssS'3.25,3.5'
p59
(dp60
g9
F0.5956306457519531
sg10
F0.007348059806430375
ssS'15.0,20.0'
p61
(dp62
g9
F0.9829956889152527
sg10
F0.0027121678588040788
ssS'2.0,2.5'
p63
(dp64
g9
F0.0
sg10
F0.0
ssS'3.5,3.75'
p65
(dp66
g9
F0.7673542499542236
sg10
F0.004492255522127149
ssS'2.75,3.0'
p67
(dp68
g9
F0.0
sg10
F0.0
ssS'10.0,15.0'
p69
(dp70
g9
F0.9799746870994568
sg10
F0.001446385332695821
ssS'8.0,10.0'
p71
(dp72
g9
F0.9815009236335754
sg10
F0.0014441707541596376
ssS'6.0,8.0'
p73
(dp74
g9
F0.9809184074401855
sg10
F0.001098521583319359
ssS'4.5,5.0'
p75
(dp76
g9
F0.9666265845298767
sg10
F0.001911229286305789
ssS'5.0,6.0'
p77
(dp78
g9
F0.9775625467300415
sg10
F0.0013504999034147926
ssS'2.5,2.75'
p79
(dp80
g9
F0.0
sg10
F0.0
ssS'4.0,4.5'
p81
(dp82
g9
F0.9332959651947021
sg10
F0.002064320582957215
sssS'1.2,2.1'
p83
(dp84
S'3.0,3.25'
p85
(dp86
g9
F0.977332353591919
sg10
F0.002719031244173898
ssS'3.75,4.0'
p87
(dp88
g9
F0.9876547455787659
sg10
F0.0028134979864486618
ssS'20.0,30.0'
p89
(dp90
g9
F0.9323946237564087
sg10
F0.007862719336771249
ssS'500,700'
p91
(dp92
g9
Nsg10
NssS'700,1200'
p93
(dp94
g9
Nsg10
NssS'30.0,40.0'
p95
(dp96
g9
F0.9472476243972778
sg10
F0.01863696942498558
ssS'3.25,3.5'
p97
(dp98
g9
F0.9871668815612793
sg10
F0.002656491252608166
ssS'15.0,20.0'
p99
(dp100
g9
F0.9372864961624146
sg10
F0.0051327681265384475
ssS'2.0,2.5'
p101
(dp102
g9
F0.9869346022605896
sg10
F0.005112920515090418
ssS'3.5,3.75'
p103
(dp104
g9
F0.981772243976593
sg10
F0.0026808118951557407
ssS'2.75,3.0'
p105
(dp106
g9
F0.9840666651725769
sg10
F0.003094555049239178
ssS'10.0,15.0'
p107
(dp108
g9
F0.9489790201187134
sg10
F0.0026729570516344447
ssS'8.0,10.0'
p109
(dp110
g9
F0.9535345435142517
sg10
F0.0025402285838278436
ssS'6.0,8.0'
p111
(dp112
g9
F0.955721378326416
sg10
F0.0018207694509939213
ssS'4.5,5.0'
p113
(dp114
g9
F0.9766363501548767
sg10
F0.0027306927008844194
ssS'5.0,6.0'
p115
(dp116
g9
F0.9706060290336609
sg10
F0.001964227248484403
ssS'2.5,2.75'
p117
(dp118
g9
F0.9745900630950928
sg10
F0.0038598166335730506
ssS'4.0,4.5'
p119
(dp120
g9
F0.9831064939498901
sg10
F0.002142629728285662
sssS'2.1,2.4'
p121
(dp122
S'3.0,3.25'
p123
(dp124
g9
F0.9816959500312805
sg10
F0.0061396385697290185
ssS'3.75,4.0'
p125
(dp126
g9
F0.9601624011993408
sg10
F0.007484513470507167
ssS'20.0,30.0'
p127
(dp128
g9
F0.8873111605644226
sg10
F0.028108711073190903
ssS'500,700'
p129
(dp130
g9
Nsg10
NssS'700,1200'
p131
(dp132
g9
Nsg10
NssS'30.0,40.0'
p133
(dp134
g9
F0.7615482807159424
sg10
F0.06316370795035921
ssS'3.25,3.5'
p135
(dp136
g9
F0.9729326963424683
sg10
F0.006444514181487705
ssS'15.0,20.0'
p137
(dp138
g9
F0.8748117685317993
sg10
F0.0461999074282273
ssS'2.0,2.5'
p139
(dp140
g9
F0.9820734262466431
sg10
F0.004358876489438316
ssS'3.5,3.75'
p141
(dp142
g9
F0.9742518067359924
sg10
F0.0069846276804447485
ssS'2.75,3.0'
p143
(dp144
g9
F0.9762101173400879
sg10
F0.005783294650547667
ssS'10.0,15.0'
p145
(dp146
g9
F0.9034184217453003
sg10
F0.009335967766591227
ssS'8.0,10.0'
p147
(dp148
g9
F0.914662778377533
sg10
F0.008714446163587887
ssS'6.0,8.0'
p149
(dp150
g9
F0.9298949241638184
sg10
F0.00603507322207598
ssS'4.5,5.0'
p151
(dp152
g9
F0.9496377110481262
sg10
F0.08217875312950798
ssS'5.0,6.0'
p153
(dp154
g9
F0.9394147992134094
sg10
F0.006134441948162667
ssS'2.5,2.75'
p155
(dp156
g9
F0.9720513224601746
sg10
F0.005467175511233821
ssS'4.0,4.5'
p157
(dp158
g9
F0.9584782719612122
sg10
F0.006048519750258481
sssss.