(dp0
S'MTau3MuID'
p1
(dp2
S'Pt_Eta'
p3
(dp4
S'0.9,1.2'
p5
(dp6
S'3.0,3.25'
p7
(dp8
S'value'
p9
F0.5924384593963623
sS'error'
p10
F0.032685726323983706
ssS'3.75,4.0'
p11
(dp12
g9
F0.9344673752784729
sg10
F0.0031313422491889343
ssS'20.0,30.0'
p13
(dp14
g9
F0.939906120300293
sg10
F0.0037402995312494224
ssS'500,700'
p15
(dp16
g9
Nsg10
NssS'700,1200'
p17
(dp18
g9
Nsg10
NssS'30.0,40.0'
p19
(dp20
g9
F0.9105949997901917
sg10
F0.009459056797921328
ssS'3.25,3.5'
p21
(dp22
g9
F0.8505385518074036
sg10
F0.00958487692335782
ssS'15.0,20.0'
p23
(dp24
g9
F0.9528549313545227
sg10
F0.04714503933650116
ssS'2.0,2.5'
p25
(dp26
g9
F0.0
sg10
F0.1172765375372808
ssS'3.5,3.75'
p27
(dp28
g9
F0.9154553413391113
sg10
F0.004881931425013983
ssS'2.75,3.0'
p29
(dp30
g9
F0.26736733317375183
sg10
F0.09522191463833281
ssS'10.0,15.0'
p31
(dp32
g9
F0.9643108248710632
sg10
F0.001169512284417899
ssS'8.0,10.0'
p33
(dp34
g9
F0.986820638179779
sg10
F0.0007239186111506992
ssS'6.0,8.0'
p35
(dp36
g9
F0.9866430163383484
sg10
F0.0005504921000833684
ssS'4.5,5.0'
p37
(dp38
g9
F0.9665923118591309
sg10
F0.0013112391222835215
ssS'5.0,6.0'
p39
(dp40
g9
F0.9779718518257141
sg10
F0.000819785607730773
ssS'2.5,2.75'
p41
(dp42
g9
F0.09083817899227142
sg10
F0.10446971378754488
ssS'4.0,4.5'
p43
(dp44
g9
F0.952721357345581
sg10
F0.001601053316203882
sssS'0.0,0.9'
p45
(dp46
S'3.0,3.25'
p47
(dp48
g9
F0.2927437722682953
sg10
F0.02288213826614725
ssS'3.75,4.0'
p49
(dp50
g9
F0.9563694596290588
sg10
F0.043630554270295274
ssS'20.0,30.0'
p51
(dp52
g9
F0.9591373205184937
sg10
F0.0015890157157616967
ssS'500,700'
p53
(dp54
g9
Nsg10
NssS'700,1200'
p55
(dp56
g9
Nsg10
NssS'30.0,40.0'
p57
(dp58
g9
F0.9492616653442383
sg10
F0.00382392626312859
ssS'3.25,3.5'
p59
(dp60
g9
F0.894260823726654
sg10
F0.004649895848323827
ssS'15.0,20.0'
p61
(dp62
g9
F0.9699726700782776
sg10
F0.0009961741401197754
ssS'2.0,2.5'
p63
(dp64
g9
F0.0
sg10
F0.7461865339036368
ssS'3.5,3.75'
p65
(dp66
g9
F0.9479714035987854
sg10
F0.001861659257075511
ssS'2.75,3.0'
p67
(dp68
g9
F0.0
sg10
F0.1069618370012215
ssS'10.0,15.0'
p69
(dp70
g9
F0.9824877381324768
sg10
F0.0004293093136885374
ssS'8.0,10.0'
p71
(dp72
g9
F0.9915706515312195
sg10
F0.00030270489430817693
ssS'6.0,8.0'
p73
(dp74
g9
F0.9906834363937378
sg10
F0.00024153304001472682
ssS'4.5,5.0'
p75
(dp76
g9
F0.97227543592453
sg10
F0.0006377706421091256
ssS'5.0,6.0'
p77
(dp78
g9
F0.9849494695663452
sg10
F0.0003631654768056224
ssS'2.5,2.75'
p79
(dp80
g9
F0.0
sg10
F0.29874068859044905
ssS'4.0,4.5'
p81
(dp82
g9
F0.96395343542099
sg10
F0.0007237336953728748
sssS'1.2,2.1'
p83
(dp84
S'3.0,3.25'
p85
(dp86
g9
F0.9750824570655823
sg10
F0.000916633528587669
ssS'3.75,4.0'
p87
(dp88
g9
F0.9838398098945618
sg10
F0.000741469311172264
ssS'20.0,30.0'
p89
(dp90
g9
F0.9290005564689636
sg10
F0.0032802089017033966
ssS'500,700'
p91
(dp92
g9
Nsg10
NssS'700,1200'
p93
(dp94
g9
Nsg10
NssS'30.0,40.0'
p95
(dp96
g9
F0.8982214331626892
sg10
F0.006802782008898821
ssS'3.25,3.5'
p97
(dp98
g9
F0.9811540246009827
sg10
F0.0007854747591455282
ssS'15.0,20.0'
p99
(dp100
g9
F0.9492151141166687
sg10
F0.0017017458385785527
ssS'2.0,2.5'
p101
(dp102
g9
F0.9315707683563232
sg10
F0.001711353907403457
ssS'3.5,3.75'
p103
(dp104
g9
F0.983302116394043
sg10
F0.0007574061003005476
ssS'2.75,3.0'
p105
(dp106
g9
F0.9691870808601379
sg10
F0.0010478236713137611
ssS'10.0,15.0'
p107
(dp108
g9
F0.967284619808197
sg10
F0.0007589904958341474
ssS'8.0,10.0'
p109
(dp110
g9
F0.9806880354881287
sg10
F0.0005925619179183504
ssS'6.0,8.0'
p111
(dp112
g9
F0.9867936968803406
sg10
F0.0003753555551198507
ssS'4.5,5.0'
p113
(dp114
g9
F0.9879794120788574
sg10
F0.0013954506296911225
ssS'5.0,6.0'
p115
(dp116
g9
F0.9899407029151917
sg10
F0.0003883224884777606
ssS'2.5,2.75'
p117
(dp118
g9
F0.9619807600975037
sg10
F0.0013228952244690487
ssS'4.0,4.5'
p119
(dp120
g9
F0.9865427613258362
sg10
F0.0005197373659356799
sssS'2.1,2.4'
p121
(dp122
S'3.0,3.25'
p123
(dp124
g9
F0.9669705033302307
sg10
F0.002290230158636908
ssS'3.75,4.0'
p125
(dp126
g9
F0.9720402956008911
sg10
F0.002353194012646775
ssS'20.0,30.0'
p127
(dp128
g9
F0.9377358555793762
sg10
F0.007828938446428962
ssS'500,700'
p129
(dp130
g9
Nsg10
NssS'700,1200'
p131
(dp132
g9
Nsg10
NssS'30.0,40.0'
p133
(dp134
g9
F0.9199263453483582
sg10
F0.02233676693297661
ssS'3.25,3.5'
p135
(dp136
g9
F0.9741182327270508
sg10
F0.0022644368029339492
ssS'15.0,20.0'
p137
(dp138
g9
F0.9532592296600342
sg10
F0.046740795652820744
ssS'2.0,2.5'
p139
(dp140
g9
F0.949927806854248
sg10
F0.0019384454582904026
ssS'3.5,3.75'
p141
(dp142
g9
F0.9718602299690247
sg10
F0.0023167933319322284
ssS'2.75,3.0'
p143
(dp144
g9
F0.9676624536514282
sg10
F0.002270801931496755
ssS'10.0,15.0'
p145
(dp146
g9
F0.9639472961425781
sg10
F0.0020850190928080915
ssS'8.0,10.0'
p147
(dp148
g9
F0.9777718186378479
sg10
F0.0015767091478637394
ssS'6.0,8.0'
p149
(dp150
g9
F0.9753345847129822
sg10
F0.0012689861573888326
ssS'4.5,5.0'
p151
(dp152
g9
F0.9691867828369141
sg10
F0.0020089019787252037
ssS'5.0,6.0'
p153
(dp154
g9
F0.9719690084457397
sg10
F0.0015085610566103681
ssS'2.5,2.75'
p155
(dp156
g9
F0.965538740158081
sg10
F0.002181341467748476
ssS'4.0,4.5'
p157
(dp158
g9
F0.972822904586792
sg10
F0.001723135147266293
sssss.