(dp0
S'MTau3MuID'
p1
(dp2
S'Pt_Eta'
p3
(dp4
S'0.9,1.2'
p5
(dp6
S'3.0,3.25'
p7
(dp8
S'value'
p9
F0.11667778342962265
sS'error'
p10
F0.005211690330505507
ssS'3.75,4.0'
p11
(dp12
g9
F0.8563776016235352
sg10
F0.002692285424538733
ssS'20.0,30.0'
p13
(dp14
g9
F0.9180740118026733
sg10
F0.0027862370357162867
ssS'500,700'
p15
(dp16
g9
Nsg10
NssS'700,1200'
p17
(dp18
g9
Nsg10
NssS'30.0,40.0'
p19
(dp20
g9
F0.8862020969390869
sg10
F0.006954583443127785
ssS'3.25,3.5'
p21
(dp22
g9
F0.4771907925605774
sg10
F0.006195913721590881
ssS'15.0,20.0'
p23
(dp24
g9
F0.9347665905952454
sg10
F0.001808470787918478
ssS'2.0,2.5'
p25
(dp26
g9
F1.492606038766553e-10
sg10
F0.001140179111682458
ssS'3.5,3.75'
p27
(dp28
g9
F0.7390133142471313
sg10
F0.004151145684561695
ssS'2.75,3.0'
p29
(dp30
g9
F0.02334119752049446
sg10
F0.003302742737800445
ssS'10.0,15.0'
p31
(dp32
g9
F0.944667398929596
sg10
F0.0009240391679522474
ssS'8.0,10.0'
p33
(dp34
g9
F0.9685928821563721
sg10
F0.0007131201817951174
ssS'6.0,8.0'
p35
(dp36
g9
F0.9785754084587097
sg10
F0.00046032577854892946
ssS'4.5,5.0'
p37
(dp38
g9
F0.9563987255096436
sg10
F0.0009996847475364228
ssS'5.0,6.0'
p39
(dp40
g9
F0.9729421734809875
sg10
F0.0006072568599600964
ssS'2.5,2.75'
p41
(dp42
g9
F0.002989468164741993
sg10
F0.0016795570238890291
ssS'4.0,4.5'
p43
(dp44
g9
F0.9251378178596497
sg10
F0.0012816135661546295
sssS'0.0,0.9'
p45
(dp46
S'3.0,3.25'
p47
(dp48
g9
F0.0464053638279438
sg10
F0.0023940875242059846
ssS'3.75,4.0'
p49
(dp50
g9
F0.8558162450790405
sg10
F0.001363165596315367
ssS'20.0,30.0'
p51
(dp52
g9
F0.951074481010437
sg10
F0.001172885601864831
ssS'500,700'
p53
(dp54
g9
Nsg10
NssS'700,1200'
p55
(dp56
g9
Nsg10
NssS'30.0,40.0'
p57
(dp58
g9
F0.9362719058990479
sg10
F0.002794244049682684
ssS'3.25,3.5'
p59
(dp60
g9
F0.5158362984657288
sg10
F0.0032928852461317306
ssS'15.0,20.0'
p61
(dp62
g9
F0.963018000125885
sg10
F0.0007573414556770142
ssS'2.0,2.5'
p63
(dp64
g9
F0.0
sg10
F0.08165262205943012
ssS'3.5,3.75'
p65
(dp66
g9
F0.7496141791343689
sg10
F0.0019548218300708027
ssS'2.75,3.0'
p67
(dp68
g9
F0.0
sg10
F0.0006456196030632537
ssS'10.0,15.0'
p69
(dp70
g9
F0.9724861979484558
sg10
F0.00036214085719651207
ssS'8.0,10.0'
p71
(dp72
g9
F0.9823217988014221
sg10
F0.00029391273238849806
ssS'6.0,8.0'
p73
(dp74
g9
F0.9835410714149475
sg10
F0.0002219994206065314
ssS'4.5,5.0'
p75
(dp76
g9
F0.9522023797035217
sg10
F0.0005688432544529111
ssS'5.0,6.0'
p77
(dp78
g9
F0.9758865237236023
sg10
F0.00031747429811619735
ssS'2.5,2.75'
p79
(dp80
g9
F0.0
sg10
F0.00297044850689066
ssS'4.0,4.5'
p81
(dp82
g9
F0.9201347827911377
sg10
F0.0006991054809133072
sssS'1.2,2.1'
p83
(dp84
S'3.0,3.25'
p85
(dp86
g9
F0.9716582894325256
sg10
F0.0006672282998215449
ssS'3.75,4.0'
p87
(dp88
g9
F0.9811832904815674
sg10
F0.0005577044101314456
ssS'20.0,30.0'
p89
(dp90
g9
F0.9106060266494751
sg10
F0.0019249028381722014
ssS'500,700'
p91
(dp92
g9
Nsg10
NssS'700,1200'
p93
(dp94
g9
Nsg10
NssS'30.0,40.0'
p95
(dp96
g9
F0.8891069889068604
sg10
F0.004596348251791451
ssS'3.25,3.5'
p97
(dp98
g9
F0.976271390914917
sg10
F0.0006060110287714426
ssS'15.0,20.0'
p99
(dp100
g9
F0.9316154718399048
sg10
F0.0012290373170438344
ssS'2.0,2.5'
p101
(dp102
g9
F0.9278764128684998
sg10
F0.0013650868839626368
ssS'3.5,3.75'
p103
(dp104
g9
F0.9792779088020325
sg10
F0.0005696166414936685
ssS'2.75,3.0'
p105
(dp106
g9
F0.9647994637489319
sg10
F0.000797750693391508
ssS'10.0,15.0'
p107
(dp108
g9
F0.9464026093482971
sg10
F0.0005902757385248892
ssS'8.0,10.0'
p109
(dp110
g9
F0.9605864882469177
sg10
F0.0005129607028076962
ssS'6.0,8.0'
p111
(dp112
g9
F0.9663002490997314
sg10
F0.00036431499485682373
ssS'4.5,5.0'
p113
(dp114
g9
F0.9815097451210022
sg10
F0.0004346516147112706
ssS'5.0,6.0'
p115
(dp116
g9
F0.9768519997596741
sg10
F0.00036609464150695386
ssS'2.5,2.75'
p117
(dp118
g9
F0.9514833688735962
sg10
F0.0010745469663112485
ssS'4.0,4.5'
p119
(dp120
g9
F0.9825883507728577
sg10
F0.0003962502040190122
sssS'2.1,2.4'
p121
(dp122
S'3.0,3.25'
p123
(dp124
g9
F0.9651764035224915
sg10
F0.0016217326137545071
ssS'3.75,4.0'
p125
(dp126
g9
F0.9696694016456604
sg10
F0.0017404992907972552
ssS'20.0,30.0'
p127
(dp128
g9
F0.9093542098999023
sg10
F0.0053962234389775725
ssS'500,700'
p129
(dp130
g9
Nsg10
NssS'700,1200'
p131
(dp132
g9
Nsg10
NssS'30.0,40.0'
p133
(dp134
g9
F0.8950344324111938
sg10
F0.01442254119358559
ssS'3.25,3.5'
p135
(dp136
g9
F0.9675663709640503
sg10
F0.0016839377806279836
ssS'15.0,20.0'
p137
(dp138
g9
F0.9354529976844788
sg10
F0.0031587081147139914
ssS'2.0,2.5'
p139
(dp140
g9
F0.9414567351341248
sg10
F0.001406301066079284
ssS'3.5,3.75'
p141
(dp142
g9
F0.9718575477600098
sg10
F0.0015821692316835797
ssS'2.75,3.0'
p143
(dp144
g9
F0.9606322646141052
sg10
F0.0016734720305362702
ssS'10.0,15.0'
p145
(dp146
g9
F0.9531815648078918
sg10
F0.0014551517692500842
ssS'8.0,10.0'
p147
(dp148
g9
F0.967255711555481
sg10
F0.0012893103400333172
ssS'6.0,8.0'
p149
(dp150
g9
F0.9707790613174438
sg10
F0.0009060440063521583
ssS'4.5,5.0'
p151
(dp152
g9
F0.9730939865112305
sg10
F0.0013366869964032183
ssS'5.0,6.0'
p153
(dp154
g9
F0.9709420800209045
sg10
F0.0010692404956941274
ssS'2.5,2.75'
p155
(dp156
g9
F0.9641482830047607
sg10
F0.0016315906076601445
ssS'4.0,4.5'
p157
(dp158
g9
F0.969862163066864
sg10
F0.0012880250039095263
sssss.