(dp0
S'MTau3MuID'
p1
(dp2
S'Pt_Eta'
p3
(dp4
S'0.9,1.2'
p5
(dp6
S'3.0,3.25'
p7
(dp8
S'value'
p9
F0.17354825139045715
sS'error'
p10
F0.17354825687883835
ssS'3.75,4.0'
p11
(dp12
g9
F0.8526676297187805
sg10
F0.006527196335636201
ssS'20.0,30.0'
p13
(dp14
g9
F0.8979198336601257
sg10
F0.008114504969118792
ssS'500,700'
p15
(dp16
g9
Nsg10
NssS'700,1200'
p17
(dp18
g9
Nsg10
NssS'30.0,40.0'
p19
(dp20
g9
F0.8539932370185852
sg10
F0.018705063065430756
ssS'3.25,3.5'
p21
(dp22
g9
F0.5338651537895203
sg10
F0.011592465640399844
ssS'15.0,20.0'
p23
(dp24
g9
F0.9093887209892273
sg10
F0.005688300113037415
ssS'2.0,2.5'
p25
(dp26
g9
F1.7836130350445956e-09
sg10
F0.003534405787537857
ssS'3.5,3.75'
p27
(dp28
g9
F0.7725718021392822
sg10
F0.008470089826204945
ssS'2.75,3.0'
p29
(dp30
g9
F0.03075448051095009
sg10
F0.005293633296242047
ssS'10.0,15.0'
p31
(dp32
g9
F0.9259786605834961
sg10
F0.012641096812007297
ssS'8.0,10.0'
p33
(dp34
g9
F0.9515590071678162
sg10
F0.0032230820994315554
ssS'6.0,8.0'
p35
(dp36
g9
F0.9621627330780029
sg10
F0.0024075801378509983
ssS'4.5,5.0'
p37
(dp38
g9
F0.9327401518821716
sg10
F0.0038267578382809087
ssS'5.0,6.0'
p39
(dp40
g9
F0.9537479877471924
sg10
F0.002826830771462996
ssS'2.5,2.75'
p41
(dp42
g9
F0.008665467612445354
sg10
F0.005773158604656477
ssS'4.0,4.5'
p43
(dp44
g9
F0.895072877407074
sg10
F0.003959827483913268
sssS'0.0,0.9'
p45
(dp46
S'3.0,3.25'
p47
(dp48
g9
F0.07065341621637344
sg10
F0.010196575396360215
ssS'3.75,4.0'
p49
(dp50
g9
F0.835203230381012
sg10
F0.0031562825594699953
ssS'20.0,30.0'
p51
(dp52
g9
F0.9433534145355225
sg10
F0.003421052268998411
ssS'500,700'
p53
(dp54
g9
Nsg10
NssS'700,1200'
p55
(dp56
g9
Nsg10
NssS'30.0,40.0'
p57
(dp58
g9
F0.9311279654502869
sg10
F0.007549727396047962
ssS'3.25,3.5'
p59
(dp60
g9
F0.5326491594314575
sg10
F0.005958885894590606
ssS'15.0,20.0'
p61
(dp62
g9
F0.9534789323806763
sg10
F0.002441686419821487
ssS'2.0,2.5'
p63
(dp64
g9
F0.0
sg10
F0.9999999999999999
ssS'3.5,3.75'
p65
(dp66
g9
F0.7274298667907715
sg10
F0.004011772015434436
ssS'2.75,3.0'
p67
(dp68
g9
F0.0
sg10
F0.0006076413783920157
ssS'10.0,15.0'
p69
(dp70
g9
F0.962813138961792
sg10
F0.001357350700768716
ssS'8.0,10.0'
p71
(dp72
g9
F0.9732275009155273
sg10
F0.0014008372177659971
ssS'6.0,8.0'
p73
(dp74
g9
F0.9717796444892883
sg10
F0.0010621844524085807
ssS'4.5,5.0'
p75
(dp76
g9
F0.9398272633552551
sg10
F0.00175299904165388
ssS'5.0,6.0'
p77
(dp78
g9
F0.9628497362136841
sg10
F0.0012819228725129345
ssS'2.5,2.75'
p79
(dp80
g9
F0.0
sg10
F0.0023755870162223314
ssS'4.0,4.5'
p81
(dp82
g9
F0.8996538519859314
sg10
F0.0018717623634869312
sssS'1.2,2.1'
p83
(dp84
S'3.0,3.25'
p85
(dp86
g9
F0.9529796242713928
sg10
F0.002495340982856203
ssS'3.75,4.0'
p87
(dp88
g9
F0.9716940522193909
sg10
F0.0026694027713910174
ssS'20.0,30.0'
p89
(dp90
g9
F0.8661951422691345
sg10
F0.006633338507910005
ssS'500,700'
p91
(dp92
g9
Nsg10
NssS'700,1200'
p93
(dp94
g9
Nsg10
NssS'30.0,40.0'
p95
(dp96
g9
F0.8508381247520447
sg10
F0.015450168414788568
ssS'3.25,3.5'
p97
(dp98
g9
F0.9685627818107605
sg10
F0.00248841821699651
ssS'15.0,20.0'
p99
(dp100
g9
F0.8896865248680115
sg10
F0.004603614801421029
ssS'2.0,2.5'
p101
(dp102
g9
F0.9193994402885437
sg10
F0.004453528643741054
ssS'3.5,3.75'
p103
(dp104
g9
F0.9653787016868591
sg10
F0.0025289934267558895
ssS'2.75,3.0'
p105
(dp106
g9
F0.9537447094917297
sg10
F0.002816379163732137
ssS'10.0,15.0'
p107
(dp108
g9
F0.9179328083992004
sg10
F0.0024831592858769857
ssS'8.0,10.0'
p109
(dp110
g9
F0.9351199269294739
sg10
F0.0024262481112081284
ssS'6.0,8.0'
p111
(dp112
g9
F0.943099856376648
sg10
F0.0017605469134898562
ssS'4.5,5.0'
p113
(dp114
g9
F0.9648966193199158
sg10
F0.0023283338373952752
ssS'5.0,6.0'
p115
(dp116
g9
F0.9608424305915833
sg10
F0.0019075895790786276
ssS'2.5,2.75'
p117
(dp118
g9
F0.937536895275116
sg10
F0.0034820453163103373
ssS'4.0,4.5'
p119
(dp120
g9
F0.9698765873908997
sg10
F0.002051110834295615
sssS'2.1,2.4'
p121
(dp122
S'3.0,3.25'
p123
(dp124
g9
F0.949271023273468
sg10
F0.005494659628712346
ssS'3.75,4.0'
p125
(dp126
g9
F0.9333165287971497
sg10
F0.006915499727635766
ssS'20.0,30.0'
p127
(dp128
g9
F0.8320634961128235
sg10
F0.02542668393073152
ssS'500,700'
p129
(dp130
g9
Nsg10
NssS'700,1200'
p131
(dp132
g9
Nsg10
NssS'30.0,40.0'
p133
(dp134
g9
F0.7005683183670044
sg10
F0.05556027780240127
ssS'3.25,3.5'
p135
(dp136
g9
F0.9477514624595642
sg10
F0.0058784272483749615
ssS'15.0,20.0'
p137
(dp138
g9
F0.8339223861694336
sg10
F0.01635914869118133
ssS'2.0,2.5'
p139
(dp140
g9
F0.9328988790512085
sg10
F0.0036770449431969728
ssS'3.5,3.75'
p141
(dp142
g9
F0.9468365907669067
sg10
F0.006401825828855838
ssS'2.75,3.0'
p143
(dp144
g9
F0.9446418881416321
sg10
F0.0051385021558467
ssS'10.0,15.0'
p145
(dp146
g9
F0.870847761631012
sg10
F0.008800041987837827
ssS'8.0,10.0'
p147
(dp148
g9
F0.8943315148353577
sg10
F0.008397808676707471
ssS'6.0,8.0'
p149
(dp150
g9
F0.9069586992263794
sg10
F0.005766721625156163
ssS'4.5,5.0'
p151
(dp152
g9
F0.9203763008117676
sg10
F0.07962371070778884
ssS'5.0,6.0'
p153
(dp154
g9
F0.9130820631980896
sg10
F0.005791623370410945
ssS'2.5,2.75'
p155
(dp156
g9
F0.9385532140731812
sg10
F0.004834192414726674
ssS'4.0,4.5'
p157
(dp158
g9
F0.9324296116828918
sg10
F0.005647596385303753
sssss.