(dp0
S'MTau3MuID'
p1
(dp2
S'Pt_Eta'
p3
(dp4
S'0.9,1.2'
p5
(dp6
S'3.0,3.25'
p7
(dp8
S'value'
p9
F1.4874147176742554
sS'error'
p10
F1.488897843376823
ssS'3.75,4.0'
p11
(dp12
g9
F0.9956678152084351
sg10
F0.008239595235193966
ssS'20.0,30.0'
p13
(dp14
g9
F0.9780473113059998
sg10
F0.009323714740688315
ssS'500,700'
p15
(dp16
g9
Nsg10
NssS'700,1200'
p17
(dp18
g9
Nsg10
NssS'30.0,40.0'
p19
(dp20
g9
F0.9636551737785339
sg10
F0.022420865712018904
ssS'3.25,3.5'
p21
(dp22
g9
F1.1187666654586792
sg10
F0.028304915072835512
ssS'15.0,20.0'
p23
(dp24
g9
F0.9728510975837708
sg10
F0.0063696873032827684
ssS'2.0,2.5'
p25
(dp26
g9
F11.949657440185547
sg10
F94302964.46642776
ssS'3.5,3.75'
p27
(dp28
g9
F1.0454097986221313
sg10
F0.012878101412468928
ssS'2.75,3.0'
p29
(dp30
g9
F1.3176051378250122
sg10
F0.29358957305686306
ssS'10.0,15.0'
p31
(dp32
g9
F0.9802166223526001
sg10
F0.01341583814654703
ssS'8.0,10.0'
p33
(dp34
g9
F0.9824137687683105
sg10
F0.0034052938836334474
ssS'6.0,8.0'
p35
(dp36
g9
F0.9832279682159424
sg10
F0.0025033878411593333
ssS'4.5,5.0'
p37
(dp38
g9
F0.9752628803253174
sg10
F0.0041290326810521335
ssS'5.0,6.0'
p39
(dp40
g9
F0.9802719950675964
sg10
F0.002969167139002992
ssS'2.5,2.75'
p41
(dp42
g9
F2.898665189743042
sg10
F2.526172878296957
ssS'4.0,4.5'
p43
(dp44
g9
F0.9675021767616272
sg10
F0.004485198750083038
sssS'0.0,0.9'
p45
(dp46
S'3.0,3.25'
p47
(dp48
g9
F1.5225269794464111
sg10
F0.2333460889033748
ssS'3.75,4.0'
p49
(dp50
g9
F0.9759141802787781
sg10
F0.004002245596944993
ssS'20.0,30.0'
p51
(dp52
g9
F0.9918817281723022
sg10
F0.003799333402772848
ssS'500,700'
p53
(dp54
g9
Nsg10
NssS'700,1200'
p55
(dp56
g9
Nsg10
NssS'30.0,40.0'
p57
(dp58
g9
F0.9945059418678284
sg10
F0.008592496481154137
ssS'3.25,3.5'
p59
(dp60
g9
F1.0325933694839478
sg10
F0.013300228193270508
ssS'15.0,20.0'
p61
(dp62
g9
F0.9900946021080017
sg10
F0.002652318278270747
ssS'2.0,2.5'
p63
(dp64
g9
F0.0
sg10
F0.0
ssS'3.5,3.75'
p65
(dp66
g9
F0.9704056978225708
sg10
F0.0059199230430610076
ssS'2.75,3.0'
p67
(dp68
g9
F0.0
sg10
F0.0
ssS'10.0,15.0'
p69
(dp70
g9
F0.9900532960891724
sg10
F0.0014436252253806502
ssS'8.0,10.0'
p71
(dp72
g9
F0.990742027759552
sg10
F0.0014565309822990983
ssS'6.0,8.0'
p73
(dp74
g9
F0.9880417585372925
sg10
F0.0011027457478395588
ssS'4.5,5.0'
p75
(dp76
g9
F0.9870036840438843
sg10
F0.0019331133456839261
ssS'5.0,6.0'
p77
(dp78
g9
F0.9866411089897156
sg10
F0.0013522441044086478
ssS'2.5,2.75'
p79
(dp80
g9
F0.0
sg10
F0.0
ssS'4.0,4.5'
p81
(dp82
g9
F0.9777413606643677
sg10
F0.0021656266098762085
sssS'1.2,2.1'
p83
(dp84
S'3.0,3.25'
p85
(dp86
g9
F0.9807764887809753
sg10
F0.0026549689017773244
ssS'3.75,4.0'
p87
(dp88
g9
F0.9903287887573242
sg10
F0.002778218660143988
ssS'20.0,30.0'
p89
(dp90
g9
F0.9512293338775635
sg10
F0.007556958354184819
ssS'500,700'
p91
(dp92
g9
Nsg10
NssS'700,1200'
p93
(dp94
g9
Nsg10
NssS'30.0,40.0'
p95
(dp96
g9
F0.9569581151008606
sg10
F0.018067655166715175
ssS'3.25,3.5'
p97
(dp98
g9
F0.9921040534973145
sg10
F0.0026222412601270262
ssS'15.0,20.0'
p99
(dp100
g9
F0.9549933075904846
sg10
F0.005099618444448244
ssS'2.0,2.5'
p101
(dp102
g9
F0.990864098072052
sg10
F0.0050161907172344535
ssS'3.5,3.75'
p103
(dp104
g9
F0.9858067035675049
sg10
F0.0026454023367432976
ssS'2.75,3.0'
p105
(dp106
g9
F0.9885419011116028
sg10
F0.003031411983103594
ssS'10.0,15.0'
p107
(dp108
g9
F0.969917893409729
sg10
F0.002692622471860335
ssS'8.0,10.0'
p109
(dp110
g9
F0.9734885096549988
sg10
F0.002578740710137877
ssS'6.0,8.0'
p111
(dp112
g9
F0.9759904742240906
sg10
F0.0018587329372026055
ssS'4.5,5.0'
p113
(dp114
g9
F0.983073890209198
sg10
F0.002411812634506352
ssS'5.0,6.0'
p115
(dp116
g9
F0.9836110472679138
sg10
F0.0019872811161059955
ssS'2.5,2.75'
p117
(dp118
g9
F0.9853423833847046
sg10
F0.0038250409719128202
ssS'4.0,4.5'
p119
(dp120
g9
F0.9870629906654358
sg10
F0.002125070318309357
sssS'2.1,2.4'
p121
(dp122
S'3.0,3.25'
p123
(dp124
g9
F0.9835207462310791
sg10
F0.005927911236881571
ssS'3.75,4.0'
p125
(dp126
g9
F0.9625100493431091
sg10
F0.007338086269207752
ssS'20.0,30.0'
p127
(dp128
g9
F0.9150048494338989
sg10
F0.028483573466141037
ssS'500,700'
p129
(dp130
g9
Nsg10
NssS'700,1200'
p131
(dp132
g9
Nsg10
NssS'30.0,40.0'
p133
(dp134
g9
F0.7827277779579163
sg10
F0.06334453519883891
ssS'3.25,3.5'
p135
(dp136
g9
F0.979520857334137
sg10
F0.006310116515282153
ssS'15.0,20.0'
p137
(dp138
g9
F0.8914636969566345
sg10
F0.017745119897663208
ssS'2.0,2.5'
p139
(dp140
g9
F0.990909993648529
sg10
F0.004176766623894808
ssS'3.5,3.75'
p141
(dp142
g9
F0.9742544889450073
sg10
F0.006775463447732671
ssS'2.75,3.0'
p143
(dp144
g9
F0.9833543300628662
sg10
F0.005616693995982213
ssS'10.0,15.0'
p145
(dp146
g9
F0.9136221408843994
sg10
F0.009337044686415955
ssS'8.0,10.0'
p147
(dp148
g9
F0.9246070981025696
sg10
F0.008769138135266762
ssS'6.0,8.0'
p149
(dp150
g9
F0.9342586398124695
sg10
F0.0060039578806432015
ssS'4.5,5.0'
p151
(dp152
g9
F0.9458246827125549
sg10
F0.08183561740240632
ssS'5.0,6.0'
p153
(dp154
g9
F0.9404083490371704
sg10
F0.006054185137931056
ssS'2.5,2.75'
p155
(dp156
g9
F0.973453164100647
sg10
F0.005277634443155047
ssS'4.0,4.5'
p157
(dp158
g9
F0.9614042639732361
sg10
F0.005961425741993228
sssss.